; Function Attrs: mustprogress nofree nounwind willreturn memory(read, argmem: readwrite, inaccessiblemem: none) uwtable
define internal void @_ZN4LuauL8fnVisitRINS_18InvalidNameCheckerEbKNS_23DuplicateTypeDefinitionEEEvRT_RT0_PNSt11conditionalIXsr3stdE10is_const_vIT1_EEKvvE4typeE(ptr noundef nonnull readonly align 8 captures(none) dereferenceable(32) %0, ptr noundef nonnull writeonly align 1 captures(none) dereferenceable(1) initializes((0, 1)) %1, ptr noundef readonly captures(none) %2) #25 {
  %4 = getelementptr inbounds nuw i8, ptr %2, i64 8
  %5 = load i64, ptr %4, align 8, !tbaa !23
  %6 = getelementptr inbounds nuw i8, ptr %0, i64 8
  %7 = load i64, ptr %6, align 8, !tbaa !23
  %8 = icmp eq i64 %5, %7
  br i1 %8, label %9, label %_ZNK4Luau18InvalidNameCheckerclERKNS_23DuplicateTypeDefinitionE.exit

9:                                                ; preds = %3
  %10 = icmp eq i64 %5, 0
  br i1 %10, label %_ZNK4Luau18InvalidNameCheckerclERKNS_23DuplicateTypeDefinitionE.exit, label %11

11:                                               ; preds = %9
  %12 = load ptr, ptr %0, align 8, !tbaa !19
  %13 = load ptr, ptr %2, align 8, !tbaa !19
  %bcmp.i.i = tail call i32 @bcmp(ptr %13, ptr %12, i64 %5)
  %14 = icmp eq i32 %bcmp.i.i, 0
  %15 = zext i1 %14 to i8
  br label %_ZNK4Luau18InvalidNameCheckerclERKNS_23DuplicateTypeDefinitionE.exit

_ZNK4Luau18InvalidNameCheckerclERKNS_23DuplicateTypeDefinitionE.exit: ; preds = %3, %9, %11
  %16 = phi i8 [ 0, %3 ], [ %15, %11 ], [ 1, %9 ]
  store i8 %16, ptr %1, align 1, !tbaa !243
  ret void
}